target datalayout = "e-m:e-p270:32:32-p271:32:32-p272:64:64-i64:64-i128:128-f80:128-n8:16:32:64-S128"
target triple = "x86_64-pc-linux-gnu"

; Function Attrs: nounwind uwtable
define internal i32 @tftp_translate_code(i32 noundef %0) #0 {
  %2 = alloca i32, align 4
  %3 = alloca i32, align 4
  store i32 %0, ptr %2, align 4, !tbaa !95
  call void @llvm.lifetime.start.p0(i64 4, ptr %3) #6
  store i32 0, ptr %3, align 4, !tbaa !95
  %4 = load i32, ptr %2, align 4, !tbaa !95
  %5 = icmp ne i32 %4, -100
  br i1 %5, label %6, label %19

6:                                                ; preds = %1
  %7 = load i32, ptr %2, align 4, !tbaa !95
  switch i32 %7, label %17 [
    i32 1, label %8
    i32 2, label %9
    i32 3, label %10
    i32 0, label %11
    i32 4, label %11
    i32 5, label %12
    i32 6, label %13
    i32 7, label %14
    i32 -99, label %15
    i32 -98, label %16
  ]

8:                                                ; preds = %6
  store i32 68, ptr %3, align 4, !tbaa !95
  br label %18

9:                                                ; preds = %6
  store i32 69, ptr %3, align 4, !tbaa !95
  br label %18

10:                                               ; preds = %6
  store i32 70, ptr %3, align 4, !tbaa !95
  br label %18

11:                                               ; preds = %6, %6
  store i32 71, ptr %3, align 4, !tbaa !95
  br label %18

12:                                               ; preds = %6
  store i32 72, ptr %3, align 4, !tbaa !95
  br label %18

13:                                               ; preds = %6
  store i32 73, ptr %3, align 4, !tbaa !95
  br label %18

14:                                               ; preds = %6
  store i32 74, ptr %3, align 4, !tbaa !95
  br label %18

15:                                               ; preds = %6
  store i32 28, ptr %3, align 4, !tbaa !95
  br label %18

16:                                               ; preds = %6
  store i32 7, ptr %3, align 4, !tbaa !95
  br label %18

17:                                               ; preds = %6
  store i32 42, ptr %3, align 4, !tbaa !95
  br label %18

18:                                               ; preds = %17, %16, %15, %14, %13, %12, %11, %10, %9, %8
  br label %20

19:                                               ; preds = %1
  store i32 0, ptr %3, align 4, !tbaa !95
  br label %20

20:                                               ; preds = %19, %18
  %21 = load i32, ptr %3, align 4, !tbaa !95
  call void @llvm.lifetime.end.p0(i64 4, ptr %3) #6
  ret i32 %21
}