; Function Attrs: mustprogress nofree norecurse nosync nounwind willreturn memory(none) uwtable
define internal fastcc range(i32 0, 75) i32 @tftp_translate_code(i32 noundef %0) unnamed_addr #6 {
  switch i32 %0, label %10 [
    i32 -100, label %11
    i32 1, label %12
    i32 2, label %2
    i32 3, label %3
    i32 0, label %4
    i32 4, label %4
    i32 5, label %5
    i32 6, label %6
    i32 7, label %7
    i32 -99, label %8
    i32 -98, label %9
  ]

2:                                                ; preds = %1
  br label %12

3:                                                ; preds = %1
  br label %12

4:                                                ; preds = %1, %1
  br label %12

5:                                                ; preds = %1
  br label %12

6:                                                ; preds = %1
  br label %12

7:                                                ; preds = %1
  br label %12

8:                                                ; preds = %1
  br label %12

9:                                                ; preds = %1
  br label %12

10:                                               ; preds = %1
  br label %12

11:                                               ; preds = %1
  br label %12

12:                                               ; preds = %1, %2, %3, %4, %5, %6, %7, %8, %9, %10, %11
  %.0 = phi i32 [ 42, %10 ], [ 7, %9 ], [ 28, %8 ], [ 74, %7 ], [ 73, %6 ], [ 72, %5 ], [ 71, %4 ], [ 70, %3 ], [ 69, %2 ], [ 0, %11 ], [ 68, %1 ]
  ret i32 %.0
}